target datalayout = "e-m:e-p270:32:32-p271:32:32-p272:64:64-i64:64-i128:128-f80:128-n8:16:32:64-S128"
target triple = "x86_64-pc-linux-gnu"

%struct.slurm_conf_t = type { i64, ptr, i16, ptr, ptr, ptr, ptr, ptr, i16, ptr, ptr, ptr, ptr, ptr, ptr, ptr, i16, ptr, ptr, ptr, ptr, i16, ptr, ptr, ptr, i64, ptr, ptr, ptr, ptr, i16, ptr, ptr, i16, i32, ptr, i32, ptr, i32, i32, ptr, ptr, i64, i64, ptr, i16, i16, ptr, i32, i32, ptr, i32, ptr, i32, i16, i16, i16, ptr, i16, i16, ptr, ptr, i32, i16, i16, ptr, i32, i16, ptr, ptr, ptr, ptr, i16, ptr, ptr, ptr, ptr, i32, ptr, ptr, ptr, ptr, i16, i16, ptr, i32, i32, i32, i16, i16, ptr, ptr, i16, ptr, ptr, i32, i32, i32, i32, i32, i64, i32, i32, i16, ptr, ptr, i32, ptr, ptr, ptr, i16, i32, ptr, ptr, i16, ptr, ptr, i32, i16, ptr, ptr, ptr, ptr, i32, i32, i16, i16, i32, ptr, i16, ptr, i32, i32, i32, i32, i32, i32, ptr, i16, ptr, ptr, i32, i16, ptr, i32, i16, i16, ptr, ptr, ptr, i16, ptr, ptr, ptr, ptr, i16, i16, ptr, i16, ptr, i16, ptr, i16, ptr, i16, ptr, ptr, ptr, ptr, i16, ptr, ptr, ptr, i32, ptr, i32, ptr, ptr, i16, ptr, ptr, i32, i16, ptr, ptr, i16, i16, ptr, i16, ptr, ptr, ptr, i32, ptr, i16, i16, ptr, ptr, ptr, ptr, ptr, ptr, ptr, ptr, i16, i32, i16, ptr, ptr, ptr, ptr, i32, ptr, ptr, ptr, i16, ptr, ptr, ptr, i16, ptr, i16, ptr, i16, i16, ptr }
%struct.bb_state = type { %struct.bb_config, ptr, ptr, ptr, %union.pthread_mutex_t, i64, i64, ptr, i64, i64, i64, ptr, %union.pthread_cond_t, i8, %union.pthread_mutex_t, i64, i32, i32, i64, i64 }
%struct.bb_config = type { ptr, ptr, ptr, ptr, ptr, ptr, ptr, ptr, i32, ptr, ptr, i64, i32, ptr, i32, i32, i32, i32, ptr, ptr, ptr, ptr, i32 }
%union.pthread_cond_t = type { %struct.__pthread_cond_s }
%struct.__pthread_cond_s = type { %union.__atomic_wide_counter, %union.__atomic_wide_counter, [2 x i32], [2 x i32], i32, i32, [2 x i32] }
%union.__atomic_wide_counter = type { i64 }
%union.pthread_mutex_t = type { %struct.__pthread_mutex_s }
%struct.__pthread_mutex_s = type { i32, i32, i32, i32, i32, i16, i16, %struct.__pthread_internal_list }
%struct.__pthread_internal_list = type { ptr, ptr }
%struct.bb_alloc = type { ptr, ptr, ptr, i32, i32, i8, i64, i64, i32, i32, i32, i32, ptr, ptr, i8, ptr, ptr, ptr, ptr, i64, i64, i16, i64, i64, i32 }
%struct.job_record = type { i32, ptr, ptr, ptr, ptr, i16, i32, i32, i32, ptr, i32, ptr, ptr, i16, ptr, double, i64, ptr, ptr, ptr, ptr, ptr, ptr, i32, ptr, i32, i64, i64, i32, i32, ptr, i16, i64, i64, i8, i32, ptr, ptr, ptr, ptr, ptr, ptr, ptr, ptr, i32, ptr, ptr, i32, ptr, i32, ptr, i32, ptr, i32, ptr, ptr, ptr, ptr, ptr, ptr, i32, i16, i64, ptr, ptr, ptr, ptr, %struct.acct_policy_limit_set_t, i16, ptr, ptr, ptr, ptr, ptr, i32, ptr, ptr, ptr, ptr, ptr, i32, i32, ptr, ptr, ptr, i16, ptr, ptr, i8, ptr, ptr, i64, i64, i8, i32, i32, i8, i32, ptr, i32, i64, i32, ptr, ptr, ptr, i8, i16, i64, i32, ptr, ptr, ptr, ptr, ptr, i16, i32, ptr, ptr, ptr, ptr, i32, ptr, i32, i16, i64, ptr, i32, i32, ptr, i64, ptr, ptr, i64, i32, i32, i64, i32, i32, ptr, ptr, ptr, ptr, ptr, ptr, ptr, ptr, ptr, ptr, ptr, ptr, i32, ptr, i16, i16, i16, i16, ptr, i32, i32, i8, i64 }
%struct.acct_policy_limit_set_t = type { i16, i16, ptr }
%struct.slurmdb_reservation_rec_t = type { ptr, ptr, ptr, i64, i32, ptr, ptr, ptr, i64, i64, i64, i64, ptr, double, ptr }
%struct.slurmdb_assoc_rec = type { ptr, ptr, ptr, ptr, ptr, ptr, ptr, i32, i32, i32, i32, i32, ptr, ptr, ptr, ptr, ptr, ptr, i32, i32, i16, ptr, ptr, i32, i32, i32, ptr, ptr, ptr, ptr, ptr, ptr, ptr, ptr, i32, i32, ptr, i32, ptr, i32, ptr, i32, i32, ptr, ptr, ptr }
%struct.slurmdb_assoc_usage = type { i32, ptr, ptr, ptr, ptr, ptr, double, double, i32, ptr, double, ptr, double, i32, x86_fp80, x86_fp80, x86_fp80, ptr, i32, i32, x86_fp80, ptr }
%struct.slurmdb_qos_rec_t = type { i64, ptr, i32, i32, i32, i32, i32, i32, ptr, ptr, ptr, ptr, ptr, ptr, i32, double, i32, i32, i32, i32, i32, i32, ptr, ptr, ptr, ptr, ptr, ptr, ptr, ptr, ptr, ptr, ptr, ptr, ptr, ptr, i32, i32, ptr, ptr, ptr, ptr, ptr, i16, i32, i32, ptr, ptr, double, double }
%struct.slurmdb_qos_usage_t = type { i32, ptr, ptr, ptr, ptr, i32, i32, ptr, ptr, double, double, i32, x86_fp80, ptr, ptr }

@plugin_type = external constant [0 x i8], align 1
@slurm_conf = external global %struct.slurm_conf_t, align 8
@.str.101 = private unnamed_addr constant [65 x i8] c"%s: %s: %s: Not tracking this TRES, not sending to the database.\00", align 1
@__func__.bb_post_persist_create = private unnamed_addr constant [23 x i8] c"bb_post_persist_create\00", align 1
@.str.102 = private unnamed_addr constant [7 x i8] c"%d=%lu\00", align 1
@acct_db_conn = external global ptr, align 8
@.str.103 = private unnamed_addr constant [91 x i8] c"%s: %s: %s: after adding persistent bb %s(%u), assoc %u(%s/%s/%s) grp_used_tres(%s) is %lu\00", align 1
@assoc_mgr_tres_name_array = external global ptr, align 8

; Function Attrs: nounwind uwtable
define dso_local i32 @bb_post_persist_create(ptr noundef %0, ptr noundef %1, ptr noundef %2) #0 {
  %4 = alloca i32, align 4
  %5 = alloca ptr, align 8
  %6 = alloca ptr, align 8
  %7 = alloca ptr, align 8
  %8 = alloca i32, align 4
  %9 = alloca %struct.slurmdb_reservation_rec_t, align 8
  %10 = alloca i64, align 8
  %11 = alloca i32, align 4
  %12 = alloca ptr, align 8
  store ptr %0, ptr %5, align 8
  store ptr %1, ptr %6, align 8
  store ptr %2, ptr %7, align 8
  call void @llvm.lifetime.start.p0(i64 4, ptr %8) #9
  store i32 0, ptr %8, align 4
  call void @llvm.lifetime.start.p0(i64 120, ptr %9) #9
  call void @llvm.lifetime.start.p0(i64 8, ptr %10) #9
  %13 = load ptr, ptr %7, align 8
  %14 = getelementptr inbounds nuw %struct.bb_state, ptr %13, i32 0, i32 16
  %15 = load i32, ptr %14, align 8
  %16 = icmp ne i32 %15, 0
  br i1 %16, label %28, label %17

17:                                               ; preds = %3
  br label %18

18:                                               ; preds = %17
  br label %19

19:                                               ; preds = %18
  %20 = call i32 @get_log_level()
  %21 = icmp sge i32 %20, 6
  br i1 %21, label %22, label %23

22:                                               ; preds = %19
  call void (i32, ptr, ...) @log_var(i32 noundef 6, ptr noundef @.str.101, ptr noundef @plugin_type, ptr noundef @__func__.bb_post_persist_create, ptr noundef @__func__.bb_post_persist_create)
  br label %23

23:                                               ; preds = %22, %19
  br label %24

24:                                               ; preds = %23
  br label %25

25:                                               ; preds = %24
  br label %26

26:                                               ; preds = %25
  br label %27

27:                                               ; preds = %26
  store i32 0, ptr %4, align 4
  store i32 1, ptr %11, align 4
  br label %179

28:                                               ; preds = %3
  %29 = load ptr, ptr %6, align 8
  %30 = getelementptr inbounds nuw %struct.bb_alloc, ptr %29, i32 0, i32 20
  %31 = load i64, ptr %30, align 8
  %32 = udiv i64 %31, 1048576
  store i64 %32, ptr %10, align 8
  call void @llvm.memset.p0.i64(ptr align 8 %9, i8 0, i64 120, i1 false)
  %33 = load ptr, ptr %6, align 8
  %34 = getelementptr inbounds nuw %struct.bb_alloc, ptr %33, i32 0, i32 2
  %35 = load ptr, ptr %34, align 8
  %36 = getelementptr inbounds nuw %struct.slurmdb_reservation_rec_t, ptr %9, i32 0, i32 0
  store ptr %35, ptr %36, align 8
  %37 = load ptr, ptr getelementptr inbounds nuw (%struct.slurm_conf_t, ptr @slurm_conf, i32 0, i32 31), align 8
  %38 = getelementptr inbounds nuw %struct.slurmdb_reservation_rec_t, ptr %9, i32 0, i32 1
  store ptr %37, ptr %38, align 8
  %39 = load ptr, ptr %6, align 8
  %40 = getelementptr inbounds nuw %struct.bb_alloc, ptr %39, i32 0, i32 12
  %41 = load ptr, ptr %40, align 8
  %42 = getelementptr inbounds nuw %struct.slurmdb_reservation_rec_t, ptr %9, i32 0, i32 5
  store ptr %41, ptr %42, align 8
  %43 = load ptr, ptr %6, align 8
  %44 = getelementptr inbounds nuw %struct.bb_alloc, ptr %43, i32 0, i32 9
  %45 = load i32, ptr %44, align 4
  %46 = getelementptr inbounds nuw %struct.slurmdb_reservation_rec_t, ptr %9, i32 0, i32 4
  store i32 %45, ptr %46, align 8
  %47 = load ptr, ptr %6, align 8
  %48 = getelementptr inbounds nuw %struct.bb_alloc, ptr %47, i32 0, i32 6
  %49 = load i64, ptr %48, align 8
  %50 = getelementptr inbounds nuw %struct.slurmdb_reservation_rec_t, ptr %9, i32 0, i32 10
  store i64 %49, ptr %50, align 8
  %51 = getelementptr inbounds nuw %struct.slurmdb_reservation_rec_t, ptr %9, i32 0, i32 12
  %52 = load ptr, ptr %7, align 8
  %53 = getelementptr inbounds nuw %struct.bb_state, ptr %52, i32 0, i32 16
  %54 = load i32, ptr %53, align 8
  %55 = load i64, ptr %10, align 8
  call void (ptr, ptr, ...) @_xstrfmtcat(ptr noundef %51, ptr noundef @.str.102, i32 noundef %54, i64 noundef %55)
  %56 = load ptr, ptr @acct_db_conn, align 8
  %57 = call i32 @acct_storage_g_add_reservation(ptr noundef %56, ptr noundef %9)
  store i32 %57, ptr %8, align 4
  %58 = getelementptr inbounds nuw %struct.slurmdb_reservation_rec_t, ptr %9, i32 0, i32 12
  call void @slurm_xfree(ptr noundef %58)
  %59 = load ptr, ptr %7, align 8
  %60 = getelementptr inbounds nuw %struct.bb_state, ptr %59, i32 0, i32 17
  %61 = load i32, ptr %60, align 4
  %62 = icmp sgt i32 %61, 0
  br i1 %62, label %63, label %177

63:                                               ; preds = %28
  call void @llvm.lifetime.start.p0(i64 8, ptr %12) #9
  %64 = load ptr, ptr %6, align 8
  %65 = getelementptr inbounds nuw %struct.bb_alloc, ptr %64, i32 0, i32 1
  %66 = load ptr, ptr %65, align 8
  store ptr %66, ptr %12, align 8
  br label %67

67:                                               ; preds = %129, %63
  %68 = load ptr, ptr %12, align 8
  %69 = icmp ne ptr %68, null
  br i1 %69, label %70, label %135

70:                                               ; preds = %67
  %71 = load i64, ptr %10, align 8
  %72 = load ptr, ptr %12, align 8
  %73 = getelementptr inbounds nuw %struct.slurmdb_assoc_rec, ptr %72, i32 0, i32 43
  %74 = load ptr, ptr %73, align 8
  %75 = getelementptr inbounds nuw %struct.slurmdb_assoc_usage, ptr %74, i32 0, i32 4
  %76 = load ptr, ptr %75, align 16
  %77 = load ptr, ptr %7, align 8
  %78 = getelementptr inbounds nuw %struct.bb_state, ptr %77, i32 0, i32 17
  %79 = load i32, ptr %78, align 4
  %80 = sext i32 %79 to i64
  %81 = getelementptr inbounds i64, ptr %76, i64 %80
  %82 = load i64, ptr %81, align 8
  %83 = add i64 %82, %71
  store i64 %83, ptr %81, align 8
  br label %84

84:                                               ; preds = %70
  br label %85

85:                                               ; preds = %84
  %86 = call i32 @get_log_level()
  %87 = icmp sge i32 %86, 6
  br i1 %87, label %88, label %125

88:                                               ; preds = %85
  %89 = load ptr, ptr %6, align 8
  %90 = getelementptr inbounds nuw %struct.bb_alloc, ptr %89, i32 0, i32 12
  %91 = load ptr, ptr %90, align 8
  %92 = load ptr, ptr %6, align 8
  %93 = getelementptr inbounds nuw %struct.bb_alloc, ptr %92, i32 0, i32 9
  %94 = load i32, ptr %93, align 4
  %95 = load ptr, ptr %12, align 8
  %96 = getelementptr inbounds nuw %struct.slurmdb_assoc_rec, ptr %95, i32 0, i32 19
  %97 = load i32, ptr %96, align 4
  %98 = load ptr, ptr %12, align 8
  %99 = getelementptr inbounds nuw %struct.slurmdb_assoc_rec, ptr %98, i32 0, i32 1
  %100 = load ptr, ptr %99, align 8
  %101 = load ptr, ptr %12, align 8
  %102 = getelementptr inbounds nuw %struct.slurmdb_assoc_rec, ptr %101, i32 0, i32 44
  %103 = load ptr, ptr %102, align 8
  %104 = load ptr, ptr %12, align 8
  %105 = getelementptr inbounds nuw %struct.slurmdb_assoc_rec, ptr %104, i32 0, i32 38
  %106 = load ptr, ptr %105, align 8
  %107 = load ptr, ptr @assoc_mgr_tres_name_array, align 8
  %108 = load ptr, ptr %7, align 8
  %109 = getelementptr inbounds nuw %struct.bb_state, ptr %108, i32 0, i32 17
  %110 = load i32, ptr %109, align 4
  %111 = sext i32 %110 to i64
  %112 = getelementptr inbounds ptr, ptr %107, i64 %111
  %113 = load ptr, ptr %112, align 8
  %114 = load ptr, ptr %12, align 8
  %115 = getelementptr inbounds nuw %struct.slurmdb_assoc_rec, ptr %114, i32 0, i32 43
  %116 = load ptr, ptr %115, align 8
  %117 = getelementptr inbounds nuw %struct.slurmdb_assoc_usage, ptr %116, i32 0, i32 4
  %118 = load ptr, ptr %117, align 16
  %119 = load ptr, ptr %7, align 8
  %120 = getelementptr inbounds nuw %struct.bb_state, ptr %119, i32 0, i32 17
  %121 = load i32, ptr %120, align 4
  %122 = sext i32 %121 to i64
  %123 = getelementptr inbounds i64, ptr %118, i64 %122
  %124 = load i64, ptr %123, align 8
  call void (i32, ptr, ...) @log_var(i32 noundef 6, ptr noundef @.str.103, ptr noundef @plugin_type, ptr noundef @__func__.bb_post_persist_create, ptr noundef @__func__.bb_post_persist_create, ptr noundef %91, i32 noundef %94, i32 noundef %97, ptr noundef %100, ptr noundef %103, ptr noundef %106, ptr noundef %113, i64 noundef %124)
  br label %125

125:                                              ; preds = %88, %85
  br label %126

126:                                              ; preds = %125
  br label %127

127:                                              ; preds = %126
  br label %128

128:                                              ; preds = %127
  br label %129

129:                                              ; preds = %128
  %130 = load ptr, ptr %12, align 8
  %131 = getelementptr inbounds nuw %struct.slurmdb_assoc_rec, ptr %130, i32 0, i32 43
  %132 = load ptr, ptr %131, align 8
  %133 = getelementptr inbounds nuw %struct.slurmdb_assoc_usage, ptr %132, i32 0, i32 9
  %134 = load ptr, ptr %133, align 8
  store ptr %134, ptr %12, align 8
  br label %67, !llvm.loop !49

135:                                              ; preds = %67
  %136 = load ptr, ptr %5, align 8
  %137 = icmp ne ptr %136, null
  br i1 %137, label %138, label %155

138:                                              ; preds = %135
  %139 = load ptr, ptr %5, align 8
  %140 = getelementptr inbounds nuw %struct.job_record, ptr %139, i32 0, i32 147
  %141 = load ptr, ptr %140, align 8
  %142 = icmp ne ptr %141, null
  br i1 %142, label %143, label %155

143:                                              ; preds = %138
  %144 = load i64, ptr %10, align 8
  %145 = load ptr, ptr %5, align 8
  %146 = getelementptr inbounds nuw %struct.job_record, ptr %145, i32 0, i32 147
  %147 = load ptr, ptr %146, align 8
  %148 = load ptr, ptr %7, align 8
  %149 = getelementptr inbounds nuw %struct.bb_state, ptr %148, i32 0, i32 17
  %150 = load i32, ptr %149, align 4
  %151 = sext i32 %150 to i64
  %152 = getelementptr inbounds i64, ptr %147, i64 %151
  %153 = load i64, ptr %152, align 8
  %154 = sub i64 %153, %144
  store i64 %154, ptr %152, align 8
  br label %155

155:                                              ; preds = %143, %138, %135
  %156 = load ptr, ptr %6, align 8
  %157 = getelementptr inbounds nuw %struct.bb_alloc, ptr %156, i32 0, i32 18
  %158 = load ptr, ptr %157, align 8
  %159 = icmp ne ptr %158, null
  br i1 %159, label %160, label %176

160:                                              ; preds = %155
  %161 = load i64, ptr %10, align 8
  %162 = load ptr, ptr %6, align 8
  %163 = getelementptr inbounds nuw %struct.bb_alloc, ptr %162, i32 0, i32 18
  %164 = load ptr, ptr %163, align 8
  %165 = getelementptr inbounds nuw %struct.slurmdb_qos_rec_t, ptr %164, i32 0, i32 47
  %166 = load ptr, ptr %165, align 8
  %167 = getelementptr inbounds nuw %struct.slurmdb_qos_usage_t, ptr %166, i32 0, i32 7
  %168 = load ptr, ptr %167, align 16
  %169 = load ptr, ptr %7, align 8
  %170 = getelementptr inbounds nuw %struct.bb_state, ptr %169, i32 0, i32 17
  %171 = load i32, ptr %170, align 4
  %172 = sext i32 %171 to i64
  %173 = getelementptr inbounds i64, ptr %168, i64 %172
  %174 = load i64, ptr %173, align 8
  %175 = add i64 %174, %161
  store i64 %175, ptr %173, align 8
  br label %176

176:                                              ; preds = %160, %155
  call void @llvm.lifetime.end.p0(i64 8, ptr %12) #9
  br label %177

177:                                              ; preds = %176, %28
  %178 = load i32, ptr %8, align 4
  store i32 %178, ptr %4, align 4
  store i32 1, ptr %11, align 4
  br label %179

179:                                              ; preds = %177, %27
  call void @llvm.lifetime.end.p0(i64 8, ptr %10) #9
  call void @llvm.lifetime.end.p0(i64 120, ptr %9) #9
  call void @llvm.lifetime.end.p0(i64 4, ptr %8) #9
  %180 = load i32, ptr %4, align 4
  ret i32 %180
}