; Function Attrs: nounwind uwtable
define dso_local i32 @bb_post_persist_create(ptr noundef readonly captures(address_is_null) %0, ptr noundef readonly captures(none) %1, ptr noundef readonly captures(none) %2) local_unnamed_addr #0 {
  %4 = alloca %struct.slurmdb_reservation_rec_t, align 8
  call void @llvm.lifetime.start.p0(i64 120, ptr nonnull %4) #17
  %5 = getelementptr inbounds nuw i8, ptr %2, i64 392
  %6 = load i32, ptr %5, align 8
  %.not = icmp eq i32 %6, 0
  br i1 %.not, label %7, label %11

7:                                                ; preds = %3
  %8 = tail call i32 @get_log_level() #17
  %9 = icmp sgt i32 %8, 5
  br i1 %9, label %10, label %94

10:                                               ; preds = %7
  tail call void (i32, ptr, ...) @log_var(i32 noundef 6, ptr noundef nonnull @.str.101, ptr noundef nonnull @plugin_type, ptr noundef nonnull @__func__.bb_post_persist_create, ptr noundef nonnull @__func__.bb_post_persist_create) #17
  br label %94

11:                                               ; preds = %3
  %12 = getelementptr inbounds nuw i8, ptr %1, i64 136
  %13 = load i64, ptr %12, align 8
  %14 = lshr i64 %13, 20
  %15 = getelementptr inbounds nuw i8, ptr %4, i64 16
  call void @llvm.memset.p0.i64(ptr noundef nonnull align 8 dereferenceable(120) %15, i8 0, i64 104, i1 false)
  %16 = getelementptr inbounds nuw i8, ptr %1, i64 16
  %17 = load ptr, ptr %16, align 8
  store ptr %17, ptr %4, align 8
  %18 = load ptr, ptr getelementptr inbounds nuw (i8, ptr @slurm_conf, i64 248), align 8
  %19 = getelementptr inbounds nuw i8, ptr %4, i64 8
  store ptr %18, ptr %19, align 8
  %20 = getelementptr inbounds nuw i8, ptr %1, i64 72
  %21 = load ptr, ptr %20, align 8
  %22 = getelementptr inbounds nuw i8, ptr %4, i64 40
  store ptr %21, ptr %22, align 8
  %23 = getelementptr inbounds nuw i8, ptr %1, i64 60
  %24 = load i32, ptr %23, align 4
  %25 = getelementptr inbounds nuw i8, ptr %4, i64 32
  store i32 %24, ptr %25, align 8
  %26 = getelementptr inbounds nuw i8, ptr %1, i64 40
  %27 = load i64, ptr %26, align 8
  %28 = getelementptr inbounds nuw i8, ptr %4, i64 80
  store i64 %27, ptr %28, align 8
  %29 = getelementptr inbounds nuw i8, ptr %4, i64 96
  call void (ptr, ptr, ...) @_xstrfmtcat(ptr noundef nonnull %29, ptr noundef nonnull @.str.102, i32 noundef %6, i64 noundef %14) #17
  %30 = load ptr, ptr @acct_db_conn, align 8
  %31 = call i32 @acct_storage_g_add_reservation(ptr noundef %30, ptr noundef nonnull %4) #17
  call void @slurm_xfree(ptr noundef nonnull %29) #17
  %32 = getelementptr inbounds nuw i8, ptr %2, i64 396
  %33 = load i32, ptr %32, align 4
  %34 = icmp sgt i32 %33, 0
  br i1 %34, label %35, label %94

35:                                               ; preds = %11
  %36 = getelementptr inbounds nuw i8, ptr %1, i64 8
  %.042 = load ptr, ptr %36, align 8
  %.not3843 = icmp eq ptr %.042, null
  br i1 %.not3843, label %._crit_edge, label %.lr.ph

.lr.ph:                                           ; preds = %35, %69
  %.044 = phi ptr [ %.0, %69 ], [ %.042, %35 ]
  %37 = getelementptr inbounds nuw i8, ptr %.044, i64 296
  %38 = load ptr, ptr %37, align 8
  %39 = getelementptr inbounds nuw i8, ptr %38, i64 32
  %40 = load ptr, ptr %39, align 16
  %41 = load i32, ptr %32, align 4
  %42 = sext i32 %41 to i64
  %43 = getelementptr inbounds i64, ptr %40, i64 %42
  %44 = load i64, ptr %43, align 8
  %45 = add i64 %44, %14
  store i64 %45, ptr %43, align 8
  %46 = call i32 @get_log_level() #17
  %47 = icmp sgt i32 %46, 5
  br i1 %47, label %48, label %69

48:                                               ; preds = %.lr.ph
  %49 = load ptr, ptr %20, align 8
  %50 = load i32, ptr %23, align 4
  %51 = getelementptr inbounds nuw i8, ptr %.044, i64 132
  %52 = load i32, ptr %51, align 4
  %53 = getelementptr inbounds nuw i8, ptr %.044, i64 8
  %54 = load ptr, ptr %53, align 8
  %55 = getelementptr inbounds nuw i8, ptr %.044, i64 304
  %56 = load ptr, ptr %55, align 8
  %57 = getelementptr inbounds nuw i8, ptr %.044, i64 264
  %58 = load ptr, ptr %57, align 8
  %59 = load ptr, ptr @assoc_mgr_tres_name_array, align 8
  %60 = load i32, ptr %32, align 4
  %61 = sext i32 %60 to i64
  %62 = getelementptr inbounds ptr, ptr %59, i64 %61
  %63 = load ptr, ptr %62, align 8
  %64 = load ptr, ptr %37, align 8
  %65 = getelementptr inbounds nuw i8, ptr %64, i64 32
  %66 = load ptr, ptr %65, align 16
  %67 = getelementptr inbounds i64, ptr %66, i64 %61
  %68 = load i64, ptr %67, align 8
  call void (i32, ptr, ...) @log_var(i32 noundef 6, ptr noundef nonnull @.str.103, ptr noundef nonnull @plugin_type, ptr noundef nonnull @__func__.bb_post_persist_create, ptr noundef nonnull @__func__.bb_post_persist_create, ptr noundef %49, i32 noundef %50, i32 noundef %52, ptr noundef %54, ptr noundef %56, ptr noundef %58, ptr noundef %63, i64 noundef %68) #17
  br label %69

69:                                               ; preds = %48, %.lr.ph
  %70 = load ptr, ptr %37, align 8
  %71 = getelementptr inbounds nuw i8, ptr %70, i64 72
  %.0 = load ptr, ptr %71, align 8
  %.not38 = icmp eq ptr %.0, null
  br i1 %.not38, label %._crit_edge, label %.lr.ph, !llvm.loop !49

._crit_edge:                                      ; preds = %69, %35
  %.not39 = icmp eq ptr %0, null
  br i1 %.not39, label %81, label %72

72:                                               ; preds = %._crit_edge
  %73 = getelementptr inbounds nuw i8, ptr %0, i64 1072
  %74 = load ptr, ptr %73, align 8
  %.not40 = icmp eq ptr %74, null
  br i1 %.not40, label %81, label %75

75:                                               ; preds = %72
  %76 = load i32, ptr %32, align 4
  %77 = sext i32 %76 to i64
  %78 = getelementptr inbounds i64, ptr %74, i64 %77
  %79 = load i64, ptr %78, align 8
  %80 = sub i64 %79, %14
  store i64 %80, ptr %78, align 8
  br label %81

81:                                               ; preds = %75, %72, %._crit_edge
  %82 = getelementptr inbounds nuw i8, ptr %1, i64 120
  %83 = load ptr, ptr %82, align 8
  %.not41 = icmp eq ptr %83, null
  br i1 %.not41, label %94, label %84

84:                                               ; preds = %81
  %85 = getelementptr inbounds nuw i8, ptr %83, i64 312
  %86 = load ptr, ptr %85, align 8
  %87 = getelementptr inbounds nuw i8, ptr %86, i64 48
  %88 = load ptr, ptr %87, align 16
  %89 = load i32, ptr %32, align 4
  %90 = sext i32 %89 to i64
  %91 = getelementptr inbounds i64, ptr %88, i64 %90
  %92 = load i64, ptr %91, align 8
  %93 = add i64 %92, %14
  store i64 %93, ptr %91, align 8
  br label %94

94:                                               ; preds = %11, %84, %81, %7, %10
  %.034 = phi i32 [ 0, %10 ], [ 0, %7 ], [ %31, %81 ], [ %31, %84 ], [ %31, %11 ]
  call void @llvm.lifetime.end.p0(i64 120, ptr nonnull %4) #17
  ret i32 %.034
}